target datalayout = "e-m:e-p270:32:32-p271:32:32-p272:64:64-i64:64-i128:128-f80:128-n8:16:32:64-S128"
target triple = "x86_64-pc-linux-gnu"

%struct.cmac_data_st = type { ptr, ptr, %struct.PROV_CIPHER }
%struct.PROV_CIPHER = type { ptr, ptr, ptr }

@.str.1 = private unnamed_addr constant [5 x i8] c"size\00", align 1
@.str.2 = private unnamed_addr constant [11 x i8] c"block-size\00", align 1

; Function Attrs: nounwind uwtable
define internal i64 @cmac_size(ptr noundef %0) #0 {
  %2 = alloca i64, align 8
  %3 = alloca ptr, align 8
  %4 = alloca ptr, align 8
  %5 = alloca ptr, align 8
  %6 = alloca i32, align 4
  store ptr %0, ptr %3, align 8, !tbaa !3
  call void @llvm.lifetime.start.p0(i64 8, ptr %4) #4
  %7 = load ptr, ptr %3, align 8, !tbaa !3
  store ptr %7, ptr %4, align 8, !tbaa !7
  call void @llvm.lifetime.start.p0(i64 8, ptr %5) #4
  %8 = load ptr, ptr %4, align 8, !tbaa !7
  %9 = getelementptr inbounds nuw %struct.cmac_data_st, ptr %8, i32 0, i32 1
  %10 = load ptr, ptr %9, align 8, !tbaa !9
  %11 = call ptr @CMAC_CTX_get0_cipher_ctx(ptr noundef %10)
  store ptr %11, ptr %5, align 8, !tbaa !32
  %12 = load ptr, ptr %5, align 8, !tbaa !32
  %13 = call ptr @EVP_CIPHER_CTX_get0_cipher(ptr noundef %12)
  %14 = icmp eq ptr %13, null
  br i1 %14, label %15, label %16

15:                                               ; preds = %1
  store i64 0, ptr %2, align 8
  store i32 1, ptr %6, align 4
  br label %20

16:                                               ; preds = %1
  %17 = load ptr, ptr %5, align 8, !tbaa !32
  %18 = call i32 @EVP_CIPHER_CTX_get_block_size(ptr noundef %17)
  %19 = sext i32 %18 to i64
  store i64 %19, ptr %2, align 8
  store i32 1, ptr %6, align 4
  br label %20

20:                                               ; preds = %16, %15
  call void @llvm.lifetime.end.p0(i64 8, ptr %5) #4
  call void @llvm.lifetime.end.p0(i64 8, ptr %4) #4
  %21 = load i64, ptr %2, align 8
  ret i64 %21
}

; Function Attrs: nounwind uwtable
define internal i32 @cmac_get_ctx_params(ptr noundef %0, ptr noundef %1) #0 {
  %3 = alloca i32, align 4
  %4 = alloca ptr, align 8
  %5 = alloca ptr, align 8
  %6 = alloca ptr, align 8
  %7 = alloca i32, align 4
  store ptr %0, ptr %4, align 8, !tbaa !3
  store ptr %1, ptr %5, align 8, !tbaa !20
  call void @llvm.lifetime.start.p0(i64 8, ptr %6) #4
  %8 = load ptr, ptr %5, align 8, !tbaa !20
  %9 = call ptr @OSSL_PARAM_locate(ptr noundef %8, ptr noundef @.str.1)
  store ptr %9, ptr %6, align 8, !tbaa !20
  %10 = icmp ne ptr %9, null
  br i1 %10, label %11, label %18

11:                                               ; preds = %2
  %12 = load ptr, ptr %6, align 8, !tbaa !20
  %13 = load ptr, ptr %4, align 8, !tbaa !3
  %14 = call i64 @cmac_size(ptr noundef %13)
  %15 = call i32 @OSSL_PARAM_set_size_t(ptr noundef %12, i64 noundef %14)
  %16 = icmp ne i32 %15, 0
  br i1 %16, label %18, label %17

17:                                               ; preds = %11
  store i32 0, ptr %3, align 4
  store i32 1, ptr %7, align 4
  br label %30

18:                                               ; preds = %11, %2
  %19 = load ptr, ptr %5, align 8, !tbaa !20
  %20 = call ptr @OSSL_PARAM_locate(ptr noundef %19, ptr noundef @.str.2)
  store ptr %20, ptr %6, align 8, !tbaa !20
  %21 = icmp ne ptr %20, null
  br i1 %21, label %22, label %29

22:                                               ; preds = %18
  %23 = load ptr, ptr %6, align 8, !tbaa !20
  %24 = load ptr, ptr %4, align 8, !tbaa !3
  %25 = call i64 @cmac_size(ptr noundef %24)
  %26 = call i32 @OSSL_PARAM_set_size_t(ptr noundef %23, i64 noundef %25)
  %27 = icmp ne i32 %26, 0
  br i1 %27, label %29, label %28

28:                                               ; preds = %22
  store i32 0, ptr %3, align 4
  store i32 1, ptr %7, align 4
  br label %30

29:                                               ; preds = %22, %18
  store i32 1, ptr %3, align 4
  store i32 1, ptr %7, align 4
  br label %30

30:                                               ; preds = %29, %28, %17
  call void @llvm.lifetime.end.p0(i64 8, ptr %6) #4
  %31 = load i32, ptr %3, align 4
  ret i32 %31
}