; Function Attrs: nounwind uwtable
define internal range(i32 0, 2) i32 @cmac_get_ctx_params(ptr noundef readonly captures(none) %0, ptr noundef %1) #0 {
  %3 = tail call ptr @OSSL_PARAM_locate(ptr noundef %1, ptr noundef nonnull @.str.1) #3
  %.not = icmp eq ptr %3, null
  br i1 %.not, label %13, label %4

4:                                                ; preds = %2
  %5 = getelementptr i8, ptr %0, i64 8
  %.val = load ptr, ptr %5, align 8, !tbaa !3
  %6 = tail call ptr @CMAC_CTX_get0_cipher_ctx(ptr noundef %.val) #3
  %7 = tail call ptr @EVP_CIPHER_CTX_get0_cipher(ptr noundef %6) #3
  %8 = icmp eq ptr %7, null
  br i1 %8, label %cmac_size.exit, label %9

9:                                                ; preds = %4
  %10 = tail call i32 @EVP_CIPHER_CTX_get_block_size(ptr noundef %6) #3
  %11 = sext i32 %10 to i64
  br label %cmac_size.exit

cmac_size.exit:                                   ; preds = %4, %9
  %.0.i = phi i64 [ %11, %9 ], [ 0, %4 ]
  %12 = tail call i32 @OSSL_PARAM_set_size_t(ptr noundef nonnull %3, i64 noundef %.0.i) #3
  %.not8 = icmp eq i32 %12, 0
  br i1 %.not8, label %25, label %13

13:                                               ; preds = %cmac_size.exit, %2
  %14 = tail call ptr @OSSL_PARAM_locate(ptr noundef %1, ptr noundef nonnull @.str.2) #3
  %.not9 = icmp eq ptr %14, null
  br i1 %.not9, label %24, label %15

15:                                               ; preds = %13
  %16 = getelementptr i8, ptr %0, i64 8
  %.val11 = load ptr, ptr %16, align 8, !tbaa !3
  %17 = tail call ptr @CMAC_CTX_get0_cipher_ctx(ptr noundef %.val11) #3
  %18 = tail call ptr @EVP_CIPHER_CTX_get0_cipher(ptr noundef %17) #3
  %19 = icmp eq ptr %18, null
  br i1 %19, label %cmac_size.exit13, label %20

20:                                               ; preds = %15
  %21 = tail call i32 @EVP_CIPHER_CTX_get_block_size(ptr noundef %17) #3
  %22 = sext i32 %21 to i64
  br label %cmac_size.exit13

cmac_size.exit13:                                 ; preds = %15, %20
  %.0.i12 = phi i64 [ %22, %20 ], [ 0, %15 ]
  %23 = tail call i32 @OSSL_PARAM_set_size_t(ptr noundef nonnull %14, i64 noundef %.0.i12) #3
  %.not10 = icmp eq i32 %23, 0
  br i1 %.not10, label %25, label %24

24:                                               ; preds = %cmac_size.exit13, %13
  br label %25

25:                                               ; preds = %cmac_size.exit13, %cmac_size.exit, %24
  %.0 = phi i32 [ 1, %24 ], [ 0, %cmac_size.exit ], [ 0, %cmac_size.exit13 ]
  ret i32 %.0
}